target datalayout = "e-m:e-p270:32:32-p271:32:32-p272:64:64-i64:64-i128:128-f80:128-n8:16:32:64-S128"
target triple = "x86_64-pc-linux-gnu"

%struct.expert_field = type { i32, i32 }
%struct.point32_t = type { i32, i32 }

@hf_Mask_flag = internal global i32 0, align 4
@hf_point32_x = internal global i32 0, align 4
@hf_point32_y = internal global i32 0, align 4
@hf_ref_image = internal global i32 0, align 4
@ett_point = internal global i32 0, align 4
@ett_Mask = internal global i32 0, align 4
@ei_spice_Mask_flag = internal global %struct.expert_field zeroinitializer, align 4
@ei_spice_Mask_point = internal global %struct.expert_field zeroinitializer, align 4
@.str.929 = private unnamed_addr constant [15 x i8] c"POINT (%d, %d)\00", align 1
@.str.978 = private unnamed_addr constant [5 x i8] c"Mask\00", align 1

; Function Attrs: null_pointer_is_valid sspstrong uwtable
define internal ptr @dissect_POINT32(ptr noundef %0, ptr noundef %1, i32 noundef %2) #0 {
  %4 = alloca ptr, align 8
  %5 = alloca ptr, align 8
  %6 = alloca i32, align 4
  %7 = alloca ptr, align 8
  %8 = alloca ptr, align 8
  %9 = alloca %struct.point32_t, align 4
  store ptr %0, ptr %4, align 8
  store ptr %1, ptr %5, align 8
  store i32 %2, ptr %6, align 4
  call void @llvm.lifetime.start.p0(i64 8, ptr %7) #6
  call void @llvm.lifetime.start.p0(i64 8, ptr %8) #6
  call void @llvm.lifetime.start.p0(i64 8, ptr %9) #6
  %10 = load ptr, ptr %4, align 8
  %11 = load i32, ptr %6, align 4
  %12 = call i32 @tvb_get_letohil(ptr noundef %10, i32 noundef %11)
  %13 = getelementptr inbounds nuw %struct.point32_t, ptr %9, i32 0, i32 0
  store i32 %12, ptr %13, align 4
  %14 = load ptr, ptr %4, align 8
  %15 = load i32, ptr %6, align 4
  %16 = add i32 %15, 4
  %17 = call i32 @tvb_get_letohil(ptr noundef %14, i32 noundef %16)
  %18 = getelementptr inbounds nuw %struct.point32_t, ptr %9, i32 0, i32 1
  store i32 %17, ptr %18, align 4
  %19 = load ptr, ptr %5, align 8
  %20 = load ptr, ptr %4, align 8
  %21 = load i32, ptr %6, align 4
  %22 = load i32, ptr @ett_point, align 4
  %23 = getelementptr inbounds nuw %struct.point32_t, ptr %9, i32 0, i32 0
  %24 = load i32, ptr %23, align 4
  %25 = getelementptr inbounds nuw %struct.point32_t, ptr %9, i32 0, i32 1
  %26 = load i32, ptr %25, align 4
  %27 = call ptr (ptr, ptr, i32, i32, i32, ptr, ptr, ...) @proto_tree_add_subtree_format(ptr noundef %19, ptr noundef %20, i32 noundef %21, i32 noundef 8, i32 noundef %22, ptr noundef %8, ptr noundef @.str.929, i32 noundef %24, i32 noundef %26)
  store ptr %27, ptr %7, align 8
  %28 = load ptr, ptr %7, align 8
  %29 = load i32, ptr @hf_point32_x, align 4
  %30 = load ptr, ptr %4, align 8
  %31 = load i32, ptr %6, align 4
  %32 = call ptr @proto_tree_add_item(ptr noundef %28, i32 noundef %29, ptr noundef %30, i32 noundef %31, i32 noundef 4, i32 noundef -2147483648)
  %33 = load ptr, ptr %7, align 8
  %34 = load i32, ptr @hf_point32_y, align 4
  %35 = load ptr, ptr %4, align 8
  %36 = load i32, ptr %6, align 4
  %37 = add i32 %36, 4
  %38 = call ptr @proto_tree_add_item(ptr noundef %33, i32 noundef %34, ptr noundef %35, i32 noundef %37, i32 noundef 4, i32 noundef -2147483648)
  %39 = load ptr, ptr %8, align 8
  call void @llvm.lifetime.end.p0(i64 8, ptr %9) #6
  call void @llvm.lifetime.end.p0(i64 8, ptr %8) #6
  call void @llvm.lifetime.end.p0(i64 8, ptr %7) #6
  ret ptr %39
}

; Function Attrs: null_pointer_is_valid sspstrong uwtable
define internal i32 @dissect_Mask(ptr noundef %0, ptr noundef %1, ptr noundef %2, i32 noundef %3) #0 {
  %5 = alloca i32, align 4
  %6 = alloca ptr, align 8
  %7 = alloca ptr, align 8
  %8 = alloca ptr, align 8
  %9 = alloca i32, align 4
  %10 = alloca ptr, align 8
  %11 = alloca ptr, align 8
  %12 = alloca ptr, align 8
  %13 = alloca ptr, align 8
  %14 = alloca i32, align 4
  %15 = alloca i32, align 4
  store ptr %0, ptr %6, align 8
  store ptr %1, ptr %7, align 8
  store ptr %2, ptr %8, align 8
  store i32 %3, ptr %9, align 4
  call void @llvm.lifetime.start.p0(i64 8, ptr %10) #6
  call void @llvm.lifetime.start.p0(i64 8, ptr %11) #6
  call void @llvm.lifetime.start.p0(i64 8, ptr %12) #6
  call void @llvm.lifetime.start.p0(i64 8, ptr %13) #6
  call void @llvm.lifetime.start.p0(i64 4, ptr %14) #6
  %16 = load ptr, ptr %8, align 8
  %17 = load ptr, ptr %6, align 8
  %18 = load i32, ptr %9, align 4
  %19 = load i32, ptr @ett_Mask, align 4
  %20 = call ptr @proto_tree_add_subtree(ptr noundef %16, ptr noundef %17, i32 noundef %18, i32 noundef 13, i32 noundef %19, ptr noundef %10, ptr noundef @.str.978)
  store ptr %20, ptr %13, align 8
  %21 = load ptr, ptr %13, align 8
  %22 = load i32, ptr @hf_Mask_flag, align 4
  %23 = load ptr, ptr %6, align 8
  %24 = load i32, ptr %9, align 4
  %25 = call ptr @proto_tree_add_item(ptr noundef %21, i32 noundef %22, ptr noundef %23, i32 noundef %24, i32 noundef 1, i32 noundef 0)
  store ptr %25, ptr %11, align 8
  %26 = load i32, ptr %9, align 4
  %27 = add i32 %26, 1
  store i32 %27, ptr %9, align 4
  %28 = load ptr, ptr %6, align 8
  %29 = load ptr, ptr %13, align 8
  %30 = load i32, ptr %9, align 4
  %31 = call ptr @dissect_POINT32(ptr noundef %28, ptr noundef %29, i32 noundef %30)
  store ptr %31, ptr %12, align 8
  %32 = load i32, ptr %9, align 4
  %33 = add i32 %32, 8
  store i32 %33, ptr %9, align 4
  %34 = load ptr, ptr %6, align 8
  %35 = load i32, ptr %9, align 4
  %36 = call i32 @tvb_get_letohl(ptr noundef %34, i32 noundef %35)
  store i32 %36, ptr %14, align 4
  %37 = load ptr, ptr %13, align 8
  %38 = load i32, ptr @hf_ref_image, align 4
  %39 = load ptr, ptr %6, align 8
  %40 = load i32, ptr %9, align 4
  %41 = call ptr @proto_tree_add_item(ptr noundef %37, i32 noundef %38, ptr noundef %39, i32 noundef %40, i32 noundef 4, i32 noundef -2147483648)
  %42 = load i32, ptr %9, align 4
  %43 = add i32 %42, 4
  store i32 %43, ptr %9, align 4
  %44 = load i32, ptr %14, align 4
  %45 = icmp ne i32 %44, 0
  br i1 %45, label %46, label %52

46:                                               ; preds = %4
  %47 = load ptr, ptr %10, align 8
  call void @proto_item_set_len(ptr noundef %47, i32 noundef 31)
  %48 = load ptr, ptr %6, align 8
  %49 = load ptr, ptr %13, align 8
  %50 = load i32, ptr %9, align 4
  %51 = call zeroext i8 @dissect_ImageDescriptor(ptr noundef %48, ptr noundef %49, i32 noundef %50)
  store i32 31, ptr %5, align 4
  store i32 1, ptr %15, align 4
  br label %59

52:                                               ; preds = %4
  %53 = load ptr, ptr %7, align 8
  %54 = load ptr, ptr %11, align 8
  %55 = call ptr @expert_add_info(ptr noundef %53, ptr noundef %54, ptr noundef @ei_spice_Mask_flag)
  %56 = load ptr, ptr %7, align 8
  %57 = load ptr, ptr %12, align 8
  %58 = call ptr @expert_add_info(ptr noundef %56, ptr noundef %57, ptr noundef @ei_spice_Mask_point)
  store i32 13, ptr %5, align 4
  store i32 1, ptr %15, align 4
  br label %59

59:                                               ; preds = %52, %46
  call void @llvm.lifetime.end.p0(i64 4, ptr %14) #6
  call void @llvm.lifetime.end.p0(i64 8, ptr %13) #6
  call void @llvm.lifetime.end.p0(i64 8, ptr %12) #6
  call void @llvm.lifetime.end.p0(i64 8, ptr %11) #6
  call void @llvm.lifetime.end.p0(i64 8, ptr %10) #6
  %60 = load i32, ptr %5, align 4
  ret i32 %60
}