; Function Attrs: null_pointer_is_valid sspstrong uwtable
define internal fastcc range(i32 13, 32) i32 @dissect_Mask(ptr noundef %0, ptr noundef %1, ptr noundef %2, i32 noundef %3) unnamed_addr #0 {
  %5 = alloca ptr, align 8
  %6 = alloca ptr, align 8
  call void @llvm.lifetime.start.p0(i64 8, ptr nonnull %6) #5
  %7 = load i32, ptr @ett_Mask, align 4
  %8 = call ptr @proto_tree_add_subtree(ptr noundef %2, ptr noundef %0, i32 noundef %3, i32 noundef 13, i32 noundef %7, ptr noundef nonnull %6, ptr noundef nonnull @.str.978)
  %9 = load i32, ptr @hf_Mask_flag, align 4
  %10 = call ptr @proto_tree_add_item(ptr noundef %8, i32 noundef %9, ptr noundef %0, i32 noundef %3, i32 noundef 1, i32 noundef 0)
  %11 = add i32 %3, 1
  call void @llvm.lifetime.start.p0(i64 8, ptr nonnull %5) #5
  %12 = call i32 @tvb_get_letohil(ptr noundef %0, i32 noundef %11)
  %13 = add i32 %3, 5
  %14 = call i32 @tvb_get_letohil(ptr noundef %0, i32 noundef %13)
  %15 = load i32, ptr @ett_point, align 4
  %16 = call ptr (ptr, ptr, i32, i32, i32, ptr, ptr, ...) @proto_tree_add_subtree_format(ptr noundef %8, ptr noundef %0, i32 noundef %11, i32 noundef 8, i32 noundef %15, ptr noundef nonnull %5, ptr noundef nonnull @.str.929, i32 noundef %12, i32 noundef %14)
  %17 = load i32, ptr @hf_point32_x, align 4
  %18 = call ptr @proto_tree_add_item(ptr noundef %16, i32 noundef %17, ptr noundef %0, i32 noundef %11, i32 noundef 4, i32 noundef -2147483648)
  %19 = load i32, ptr @hf_point32_y, align 4
  %20 = call ptr @proto_tree_add_item(ptr noundef %16, i32 noundef %19, ptr noundef %0, i32 noundef %13, i32 noundef 4, i32 noundef -2147483648)
  %21 = load ptr, ptr %5, align 8
  call void @llvm.lifetime.end.p0(i64 8, ptr nonnull %5) #5
  %22 = add i32 %3, 9
  %23 = call i32 @tvb_get_letohl(ptr noundef %0, i32 noundef %22)
  %24 = load i32, ptr @hf_ref_image, align 4
  %25 = call ptr @proto_tree_add_item(ptr noundef %8, i32 noundef %24, ptr noundef %0, i32 noundef %22, i32 noundef 4, i32 noundef -2147483648)
  %.not = icmp eq i32 %23, 0
  br i1 %.not, label %30, label %26

26:                                               ; preds = %4
  %27 = add i32 %3, 13
  %28 = load ptr, ptr %6, align 8
  call void @proto_item_set_len(ptr noundef %28, i32 noundef 31)
  %29 = call fastcc zeroext i8 @dissect_ImageDescriptor(ptr noundef %0, ptr noundef %8, i32 noundef %27)
  br label %33

30:                                               ; preds = %4
  %31 = call ptr @expert_add_info(ptr noundef %1, ptr noundef %10, ptr noundef nonnull @ei_spice_Mask_flag)
  %32 = call ptr @expert_add_info(ptr noundef %1, ptr noundef %21, ptr noundef nonnull @ei_spice_Mask_point)
  br label %33

33:                                               ; preds = %30, %26
  %.0 = phi i32 [ 31, %26 ], [ 13, %30 ]
  call void @llvm.lifetime.end.p0(i64 8, ptr nonnull %6) #5
  ret i32 %.0
}